; Function Attrs: mustprogress nofree norecurse nosync nounwind willreturn memory(argmem: read) uwtable
define noundef range(i32 0, -3) i32 @_ZNK8facebook5velox6common3hll9SparseHll12inMemorySizeEv(ptr noundef nonnull readonly align 8 captures(none) dereferenceable(36) %this) local_unnamed_addr #7 align 2 {
entry:
  %add.ptr.i = getelementptr inbounds nuw i8, ptr %this, i64 8
  %_M_finish.i = getelementptr inbounds nuw i8, ptr %this, i64 16
  %0 = load ptr, ptr %_M_finish.i, align 8
  %1 = load ptr, ptr %add.ptr.i, align 8
  %sub.ptr.lhs.cast.i = ptrtoint ptr %0 to i64
  %sub.ptr.rhs.cast.i = ptrtoint ptr %1 to i64
  %sub.ptr.sub.i = sub i64 %sub.ptr.lhs.cast.i, %sub.ptr.rhs.cast.i
  %2 = trunc i64 %sub.ptr.sub.i to i32
  %conv = and i32 %2, -4
  ret i32 %conv
}